target datalayout = "e-m:e-p270:32:32-p271:32:32-p272:64:64-i64:64-i128:128-f80:128-n8:16:32:64-S128"
target triple = "x86_64-pc-linux-gnu"

%struct.ARKodeMemRec = type { ptr, double, ptr, i32, i32, double, double, ptr, i32, double, ptr, i32, i32, ptr, ptr, i32, ptr, ptr, i32, ptr, ptr, ptr, ptr, ptr, ptr, ptr, ptr, ptr, ptr, ptr, ptr, ptr, ptr, ptr, i32, ptr, ptr, i32, ptr, i32, ptr, ptr, ptr, ptr, ptr, ptr, ptr, ptr, ptr, ptr, ptr, ptr, ptr, ptr, ptr, ptr, ptr, ptr, ptr, ptr, ptr, ptr, ptr, ptr, ptr, ptr, i32, ptr, ptr, ptr, ptr, ptr, ptr, ptr, i32, ptr, ptr, ptr, i32, ptr, ptr, ptr, ptr, ptr, ptr, ptr, i32, i32, i32, i32, double, double, double, double, double, double, double, double, double, double, i32, ptr, i64, i32, i32, i32, i32, i64, i64, i32, i64, i64, i64, i64, i64, i64, i64, double, double, double, double, double, i32, double, double, i32, i32, i32, i32, i32, i32, i32, i32, ptr, i32, ptr, ptr, ptr, ptr, i32, i32, i32 }

@.str = private unnamed_addr constant [115 x i8] c"generated/home/dtcxzyw/WorkSpace/Projects/compilers/llvm-opt-benchmark/bench/sundials/sundials/src/arkode/arkode.c\00", align 1
@.str.1 = private unnamed_addr constant [27 x i8] c"arkode_mem = NULL illegal.\00", align 1
@.str.137 = private unnamed_addr constant [43 x i8] c"Adaptivity memory structure not allocated.\00", align 1
@__func__.arkAccessHAdaptMem = private unnamed_addr constant [19 x i8] c"arkAccessHAdaptMem\00", align 1

; Function Attrs: nounwind uwtable
define i32 @arkAccessHAdaptMem(ptr noundef %0, ptr noundef %1, ptr noundef %2, ptr noundef %3) #0 {
  %5 = alloca i32, align 4
  %6 = alloca ptr, align 8
  %7 = alloca ptr, align 8
  %8 = alloca ptr, align 8
  %9 = alloca ptr, align 8
  store ptr %0, ptr %6, align 8, !tbaa !3
  store ptr %1, ptr %7, align 8, !tbaa !47
  store ptr %2, ptr %8, align 8, !tbaa !224
  store ptr %3, ptr %9, align 8, !tbaa !226
  %10 = load ptr, ptr %6, align 8, !tbaa !3
  %11 = icmp eq ptr %10, null
  br i1 %11, label %12, label %14

12:                                               ; preds = %4
  %13 = load ptr, ptr %7, align 8, !tbaa !47
  call void (ptr, i32, i32, ptr, ptr, ptr, ...) @arkProcessError(ptr noundef null, i32 noundef -21, i32 noundef 3645, ptr noundef %13, ptr noundef @.str, ptr noundef @.str.1)
  store i32 -21, ptr %5, align 4
  br label %31

14:                                               ; preds = %4
  %15 = load ptr, ptr %6, align 8, !tbaa !3
  %16 = load ptr, ptr %8, align 8, !tbaa !224
  store ptr %15, ptr %16, align 8, !tbaa !11
  %17 = load ptr, ptr %8, align 8, !tbaa !224
  %18 = load ptr, ptr %17, align 8, !tbaa !11
  %19 = getelementptr inbounds nuw %struct.ARKodeMemRec, ptr %18, i32 0, i32 101
  %20 = load ptr, ptr %19, align 8, !tbaa !70
  %21 = icmp eq ptr %20, null
  br i1 %21, label %22, label %25

22:                                               ; preds = %14
  %23 = load ptr, ptr %8, align 8, !tbaa !224
  %24 = load ptr, ptr %23, align 8, !tbaa !11
  call void (ptr, i32, i32, ptr, ptr, ptr, ...) @arkProcessError(ptr noundef %24, i32 noundef -21, i32 noundef 3652, ptr noundef @__func__.arkAccessHAdaptMem, ptr noundef @.str, ptr noundef @.str.137)
  store i32 -21, ptr %5, align 4
  br label %31

25:                                               ; preds = %14
  %26 = load ptr, ptr %8, align 8, !tbaa !224
  %27 = load ptr, ptr %26, align 8, !tbaa !11
  %28 = getelementptr inbounds nuw %struct.ARKodeMemRec, ptr %27, i32 0, i32 101
  %29 = load ptr, ptr %28, align 8, !tbaa !70
  %30 = load ptr, ptr %9, align 8, !tbaa !226
  store ptr %29, ptr %30, align 8, !tbaa !139
  store i32 0, ptr %5, align 4
  br label %31

31:                                               ; preds = %25, %22, %12
  %32 = load i32, ptr %5, align 4
  ret i32 %32
}